; Function Attrs: mustprogress nounwind uwtable
define hidden noundef ptr @_ZN10LinearScan21interval_at_block_endEP10BlockBegini(ptr nocapture noundef nonnull readonly align 8 dereferenceable(256) %0, ptr nocapture noundef readonly %1, i32 noundef %2) local_unnamed_addr #0 align 2 {
  %4 = getelementptr inbounds i8, ptr %0, i64 88
  %5 = load ptr, ptr %4, align 8
  %6 = sext i32 %2 to i64
  %7 = getelementptr inbounds ptr, ptr %5, i64 %6
  %8 = load ptr, ptr %7, align 8
  %9 = getelementptr inbounds i8, ptr %1, i64 404
  %10 = load i32, ptr %9, align 4
  %11 = add nsw i32 %10, 1
  %12 = tail call noundef ptr @_ZN10LinearScan20split_child_at_op_idEP8IntervaliN16LIR_OpVisitState7OprModeE(ptr noundef nonnull align 8 dereferenceable(256) %0, ptr noundef %8, i32 noundef %11, i32 noundef 2)
  ret ptr %12
}